(lp0
(lp1
I0
aI0
aa(lp2
I0
aI1
aa(lp3
I0
aI2
aa(lp4
I0
aI3
aa(lp5
I0
aI4
aa(lp6
I0
aI5
aa(lp7
I1
aI0
aa(lp8
I1
aI1
aa(lp9
I1
aI2
aa(lp10
I1
aI3
aa(lp11
I1
aI4
aa(lp12
I1
aI5
aa(lp13
I2
aI0
aa(lp14
I2
aI1
aa(lp15
I2
aI2
aa(lp16
I2
aI3
aa(lp17
I2
aI4
aa(lp18
I2
aI5
aa(lp19
I3
aI0
aa(lp20
I3
aI1
aa(lp21
I3
aI2
aa(lp22
I3
aI3
aa(lp23
I3
aI4
aa(lp24
I3
aI5
aa(lp25
I4
aI0
aa(lp26
I4
aI1
aa(lp27
I4
aI2
aa(lp28
I4
aI3
aa(lp29
I4
aI4
aa(lp30
I4
aI5
aa(lp31
I5
aI0
aa(lp32
I5
aI1
aa(lp33
I5
aI2
aa(lp34
I5
aI3
aa(lp35
I5
aI4
aa(lp36
I5
aI5
aa(lp37
I6
aI0
aa(lp38
I6
aI1
aa(lp39
I6
aI2
aa(lp40
I6
aI3
aa(lp41
I6
aI4
aa(lp42
I6
aI5
aa(lp43
I7
aI0
aa(lp44
I7
aI1
aa(lp45
I7
aI2
aa(lp46
I7
aI3
aa(lp47
I7
aI4
aa(lp48
I7
aI5
aa.