(dp0
(I7
I3
tp1
I4
s(I1
I3
tp2
I2
s(I3
I0
tp3
I2
s(I5
I4
tp4
I1
s(I2
I1
tp5
I1
s(I6
I2
tp6
I7
s(I5
I1
tp7
I7
s(I2
I5
tp8
I3
s(I0
I3
tp9
I4
s(I7
I2
tp10
I5
s(I4
I0
tp11
I0
s(I1
I2
tp12
I3
s(I3
I3
tp13
I7
s(I4
I4
tp14
I7
s(I6
I3
tp15
I2
s(I1
I5
tp16
I2
s(I5
I0
tp17
I4
s(I2
I2
tp18
I0
s(I5
I3
tp19
I1
s(I4
I1
tp20
I7
s(I1
I1
tp21
I0
s(I6
I4
tp22
I5
s(I3
I2
tp23
I0
s(I0
I0
tp24
I3
s(I7
I1
tp25
I6
s(I4
I5
tp26
I0
s(I0
I4
tp27
I3
s(I5
I5
tp28
I6
s(I1
I4
tp29
I5
s(I6
I0
tp30
I5
s(I7
I5
tp31
I4
s(I0
I5
tp32
I4
s(I4
I2
tp33
I6
s(I1
I0
tp34
I5
s(I6
I5
tp35
I7
s(I3
I5
tp36
I0
s(I0
I1
tp37
I2
s(I7
I0
tp38
I3
s(I5
I2
tp39
I6
s(I6
I1
tp40
I4
s(I3
I1
tp41
I1
s(I0
I2
tp42
I1
s(I7
I4
tp43
I6
s(I2
I0
tp44
I6
s(I4
I3
tp45
I5
s(I2
I3
tp46
I3
s(I3
I4
tp47
I2
s(I2
I4
tp48
I1
s.